target datalayout = "e-m:e-p270:32:32-p271:32:32-p272:64:64-i64:64-i128:128-f80:128-n8:16:32:64-S128"
target triple = "x86_64-pc-linux-gnu"

@proto_register_gsup.ett = internal global [2 x ptr] [ptr @ett_gsup, ptr @ett_gsup_ie], align 16
@.str.106 = private unnamed_addr constant [43 x i8] c"Osmocom General Subscriber Update Protocol\00", align 1
@.str.107 = private unnamed_addr constant [5 x i8] c"GSUP\00", align 1
@.str.108 = private unnamed_addr constant [5 x i8] c"gsup\00", align 1
@proto_gsup = internal global i32 0, align 4
@gsup_handle = internal global ptr null, align 8
@.str.109 = private unnamed_addr constant [18 x i8] c"show_name_as_text\00", align 1
@.str.110 = private unnamed_addr constant [19 x i8] c"Show Names as text\00", align 1
@.str.111 = private unnamed_addr constant [70 x i8] c"Show GSUP Source/Destination names as text in the Packet Details pane\00", align 1
@show_name_as_text = internal global i8 1, align 1

; Function Attrs: null_pointer_is_valid sspstrong uwtable
define hidden void @proto_register_gsup() #0 {
  %1 = alloca ptr, align 8
  %2 = alloca ptr, align 8
  call void @llvm.lifetime.start.p0(i64 8, ptr %1) #5
  call void @llvm.lifetime.start.p0(i64 8, ptr %2) #5
  %3 = call i32 @proto_register_protocol(ptr noundef @.str.106, ptr noundef @.str.107, ptr noundef @.str.108)
  store i32 %3, ptr @proto_gsup, align 4
  %4 = load i32, ptr @proto_gsup, align 4
  call void @proto_register_field_array(i32 noundef %4, ptr noundef @proto_register_gsup.hf, i32 noundef 43)
  call void @proto_register_subtree_array(ptr noundef @proto_register_gsup.ett, i32 noundef 2)
  %5 = load i32, ptr @proto_gsup, align 4
  %6 = call ptr @register_dissector(ptr noundef @.str.108, ptr noundef @dissect_gsup, i32 noundef %5)
  store ptr %6, ptr @gsup_handle, align 8
  %7 = load i32, ptr @proto_gsup, align 4
  %8 = call ptr @expert_register_protocol(i32 noundef %7)
  store ptr %8, ptr %1, align 8
  %9 = load ptr, ptr %1, align 8
  call void @expert_register_field_array(ptr noundef %9, ptr noundef @proto_register_gsup.ei, i32 noundef 3)
  %10 = load i32, ptr @proto_gsup, align 4
  %11 = call ptr @prefs_register_protocol(i32 noundef %10, ptr noundef null)
  store ptr %11, ptr %2, align 8
  %12 = load ptr, ptr %2, align 8
  call void @prefs_register_bool_preference(ptr noundef %12, ptr noundef @.str.109, ptr noundef @.str.110, ptr noundef @.str.111, ptr noundef @show_name_as_text)
  call void @llvm.lifetime.end.p0(i64 8, ptr %2) #5
  call void @llvm.lifetime.end.p0(i64 8, ptr %1) #5
  ret void
}